target datalayout = "e-m:e-p270:32:32-p271:32:32-p272:64:64-i64:64-i128:128-f80:128-n8:16:32:64-S128"
target triple = "x86_64-pc-linux-gnu"

@hf_zbee_zcl_proxy_sink_tbl_resp_status = internal global i32 0, align 4
@hf_zbee_zcl_proxy_sink_tbl_resp_entries_total = internal global i32 0, align 4
@hf_zbee_zcl_proxy_sink_tbl_resp_start_index = internal global i32 0, align 4
@hf_zbee_zcl_proxy_sink_tbl_resp_entries_count = internal global i32 0, align 4

; Function Attrs: null_pointer_is_valid sspstrong uwtable
define internal void @dissect_zcl_gp_proxy_sink_table_response(ptr noundef %0, ptr noundef %1, ptr noundef %2, i16 noundef zeroext %3) #0 {
  %5 = alloca ptr, align 8
  %6 = alloca ptr, align 8
  %7 = alloca ptr, align 8
  %8 = alloca i16, align 2
  %9 = alloca i8, align 1
  %10 = alloca i8, align 1
  %11 = alloca i32, align 4
  %12 = alloca i32, align 4
  %13 = alloca i32, align 4
  store ptr %0, ptr %5, align 8
  store ptr %1, ptr %6, align 8
  store ptr %2, ptr %7, align 8
  store i16 %3, ptr %8, align 2
  call void @llvm.lifetime.start.p0(i64 1, ptr %9) #7
  call void @llvm.lifetime.start.p0(i64 1, ptr %10) #7
  call void @llvm.lifetime.start.p0(i64 4, ptr %11) #7
  call void @llvm.lifetime.start.p0(i64 4, ptr %12) #7
  %14 = load i16, ptr %8, align 2
  %15 = zext i16 %14 to i32
  %16 = icmp eq i32 %15, 1
  br i1 %16, label %22, label %17

17:                                               ; preds = %4
  %18 = load i16, ptr %8, align 2
  %19 = zext i16 %18 to i32
  %20 = icmp eq i32 %19, 17
  br i1 %20, label %22, label %21

21:                                               ; preds = %17
  store i32 1, ptr %13, align 4
  br label %110

22:                                               ; preds = %17, %4
  %23 = load ptr, ptr %5, align 8
  %24 = load i32, ptr @hf_zbee_zcl_proxy_sink_tbl_resp_status, align 4
  %25 = load ptr, ptr %6, align 8
  %26 = load ptr, ptr %7, align 8
  %27 = load i32, ptr %26, align 4
  %28 = call ptr @proto_tree_add_item(ptr noundef %23, i32 noundef %24, ptr noundef %25, i32 noundef %27, i32 noundef 1, i32 noundef 0)
  %29 = load ptr, ptr %7, align 8
  %30 = load i32, ptr %29, align 4
  %31 = add i32 %30, 1
  store i32 %31, ptr %29, align 4
  %32 = load ptr, ptr %5, align 8
  %33 = load i32, ptr @hf_zbee_zcl_proxy_sink_tbl_resp_entries_total, align 4
  %34 = load ptr, ptr %6, align 8
  %35 = load ptr, ptr %7, align 8
  %36 = load i32, ptr %35, align 4
  %37 = call ptr @proto_tree_add_item(ptr noundef %32, i32 noundef %33, ptr noundef %34, i32 noundef %36, i32 noundef 1, i32 noundef 0)
  %38 = load ptr, ptr %7, align 8
  %39 = load i32, ptr %38, align 4
  %40 = add i32 %39, 1
  store i32 %40, ptr %38, align 4
  %41 = load ptr, ptr %6, align 8
  %42 = load ptr, ptr %7, align 8
  %43 = load i32, ptr %42, align 4
  %44 = call zeroext i8 @tvb_get_uint8(ptr noundef %41, i32 noundef %43)
  store i8 %44, ptr %10, align 1
  %45 = load ptr, ptr %5, align 8
  %46 = load i32, ptr @hf_zbee_zcl_proxy_sink_tbl_resp_start_index, align 4
  %47 = load ptr, ptr %6, align 8
  %48 = load ptr, ptr %7, align 8
  %49 = load i32, ptr %48, align 4
  %50 = call ptr @proto_tree_add_item(ptr noundef %45, i32 noundef %46, ptr noundef %47, i32 noundef %49, i32 noundef 1, i32 noundef 0)
  %51 = load ptr, ptr %7, align 8
  %52 = load i32, ptr %51, align 4
  %53 = add i32 %52, 1
  store i32 %53, ptr %51, align 4
  %54 = load ptr, ptr %6, align 8
  %55 = load ptr, ptr %7, align 8
  %56 = load i32, ptr %55, align 4
  %57 = call zeroext i8 @tvb_get_uint8(ptr noundef %54, i32 noundef %56)
  store i8 %57, ptr %9, align 1
  %58 = load ptr, ptr %5, align 8
  %59 = load i32, ptr @hf_zbee_zcl_proxy_sink_tbl_resp_entries_count, align 4
  %60 = load ptr, ptr %6, align 8
  %61 = load ptr, ptr %7, align 8
  %62 = load i32, ptr %61, align 4
  %63 = call ptr @proto_tree_add_item(ptr noundef %58, i32 noundef %59, ptr noundef %60, i32 noundef %62, i32 noundef 1, i32 noundef 0)
  %64 = load ptr, ptr %7, align 8
  %65 = load i32, ptr %64, align 4
  %66 = add i32 %65, 1
  store i32 %66, ptr %64, align 4
  store i32 0, ptr %11, align 4
  store i32 0, ptr %12, align 4
  br label %67

67:                                               ; preds = %106, %22
  %68 = load i32, ptr %11, align 4
  %69 = load i8, ptr %9, align 1
  %70 = zext i8 %69 to i32
  %71 = icmp ult i32 %68, %70
  br i1 %71, label %72, label %76

72:                                               ; preds = %67
  %73 = load i32, ptr %12, align 4
  %74 = icmp ne i32 %73, 0
  %75 = xor i1 %74, true
  br label %76

76:                                               ; preds = %72, %67
  %77 = phi i1 [ false, %67 ], [ %75, %72 ]
  br i1 %77, label %78, label %109

78:                                               ; preds = %76
  %79 = load i16, ptr %8, align 2
  %80 = zext i16 %79 to i32
  switch i32 %80, label %105 [
    i32 1, label %81
    i32 17, label %93
  ]

81:                                               ; preds = %78
  %82 = load ptr, ptr %6, align 8
  %83 = load ptr, ptr %5, align 8
  %84 = load ptr, ptr %7, align 8
  %85 = load i8, ptr %10, align 1
  %86 = zext i8 %85 to i32
  %87 = load i32, ptr %11, align 4
  %88 = add i32 %86, %87
  %89 = call i32 @dissect_zbee_zcl_gp_sink_table_entry(ptr noundef %82, ptr noundef %83, ptr noundef %84, i32 noundef %88)
  %90 = icmp ne i32 %89, 0
  %91 = xor i1 %90, true
  %92 = zext i1 %91 to i32
  store i32 %92, ptr %12, align 4
  br label %105

93:                                               ; preds = %78
  %94 = load ptr, ptr %6, align 8
  %95 = load ptr, ptr %5, align 8
  %96 = load ptr, ptr %7, align 8
  %97 = load i8, ptr %10, align 1
  %98 = zext i8 %97 to i32
  %99 = load i32, ptr %11, align 4
  %100 = add i32 %98, %99
  %101 = call i32 @dissect_zbee_zcl_gp_proxy_table_entry(ptr noundef %94, ptr noundef %95, ptr noundef %96, i32 noundef %100)
  %102 = icmp ne i32 %101, 0
  %103 = xor i1 %102, true
  %104 = zext i1 %103 to i32
  store i32 %104, ptr %12, align 4
  br label %105

105:                                              ; preds = %78, %93, %81
  br label %106

106:                                              ; preds = %105
  %107 = load i32, ptr %11, align 4
  %108 = add i32 %107, 1
  store i32 %108, ptr %11, align 4
  br label %67, !llvm.loop !35

109:                                              ; preds = %76
  store i32 0, ptr %13, align 4
  br label %110

110:                                              ; preds = %109, %21
  call void @llvm.lifetime.end.p0(i64 4, ptr %12) #7
  call void @llvm.lifetime.end.p0(i64 4, ptr %11) #7
  call void @llvm.lifetime.end.p0(i64 1, ptr %10) #7
  call void @llvm.lifetime.end.p0(i64 1, ptr %9) #7
  %111 = load i32, ptr %13, align 4
  switch i32 %111, label %113 [
    i32 0, label %112
    i32 1, label %112
  ]

112:                                              ; preds = %110, %110
  ret void

113:                                              ; preds = %110
  unreachable
}