; Function Attrs: null_pointer_is_valid sspstrong uwtable
define internal fastcc void @dissect_zcl_gp_proxy_sink_table_response(ptr noundef %0, ptr noundef %1, ptr noundef captures(none) %2, i16 noundef zeroext range(i16 1, 18) %3) unnamed_addr #0 {
  %5 = and i16 %3, 15
  %or.cond = icmp eq i16 %5, 1
  br i1 %or.cond, label %6, label %.loopexit

6:                                                ; preds = %4
  %7 = load i32, ptr @hf_zbee_zcl_proxy_sink_tbl_resp_status, align 4
  %8 = load i32, ptr %2, align 4
  %9 = tail call ptr @proto_tree_add_item(ptr noundef %0, i32 noundef %7, ptr noundef %1, i32 noundef %8, i32 noundef 1, i32 noundef 0)
  %10 = load i32, ptr %2, align 4
  %11 = add i32 %10, 1
  store i32 %11, ptr %2, align 4
  %12 = load i32, ptr @hf_zbee_zcl_proxy_sink_tbl_resp_entries_total, align 4
  %13 = tail call ptr @proto_tree_add_item(ptr noundef %0, i32 noundef %12, ptr noundef %1, i32 noundef %11, i32 noundef 1, i32 noundef 0)
  %14 = load i32, ptr %2, align 4
  %15 = add i32 %14, 1
  store i32 %15, ptr %2, align 4
  %16 = tail call zeroext i8 @tvb_get_uint8(ptr noundef %1, i32 noundef %15)
  %17 = load i32, ptr @hf_zbee_zcl_proxy_sink_tbl_resp_start_index, align 4
  %18 = load i32, ptr %2, align 4
  %19 = tail call ptr @proto_tree_add_item(ptr noundef %0, i32 noundef %17, ptr noundef %1, i32 noundef %18, i32 noundef 1, i32 noundef 0)
  %20 = load i32, ptr %2, align 4
  %21 = add i32 %20, 1
  store i32 %21, ptr %2, align 4
  %22 = tail call zeroext i8 @tvb_get_uint8(ptr noundef %1, i32 noundef %21)
  %23 = load i32, ptr @hf_zbee_zcl_proxy_sink_tbl_resp_entries_count, align 4
  %24 = load i32, ptr %2, align 4
  %25 = tail call ptr @proto_tree_add_item(ptr noundef %0, i32 noundef %23, ptr noundef %1, i32 noundef %24, i32 noundef 1, i32 noundef 0)
  %26 = load i32, ptr %2, align 4
  %27 = add i32 %26, 1
  store i32 %27, ptr %2, align 4
  %28 = zext i8 %22 to i32
  %.not = icmp eq i8 %22, 0
  br i1 %.not, label %.loopexit, label %.lr.ph

.lr.ph:                                           ; preds = %6
  %29 = zext i8 %16 to i32
  switch i16 %3, label %.loopexit [
    i16 1, label %.lr.ph.split.us
    i16 17, label %.lr.ph.split.us42
  ]

.lr.ph.split.us:                                  ; preds = %.lr.ph, %.lr.ph.split.us
  %.03841.us = phi i32 [ %32, %.lr.ph.split.us ], [ 0, %.lr.ph ]
  %30 = add nuw nsw i32 %.03841.us, %29
  %31 = tail call fastcc i32 @dissect_zbee_zcl_gp_sink_table_entry(ptr noundef %1, ptr noundef %0, ptr noundef %2, i32 noundef %30)
  %32 = add nuw nsw i32 %.03841.us, 1
  %33 = icmp samesign ult i32 %32, %28
  %.not.us = icmp ne i32 %31, 0
  %34 = select i1 %33, i1 %.not.us, i1 false
  br i1 %34, label %.lr.ph.split.us, label %.loopexit, !llvm.loop !35

.lr.ph.split.us42:                                ; preds = %.lr.ph, %.lr.ph.split.us42
  %.03841.us43 = phi i32 [ %37, %.lr.ph.split.us42 ], [ 0, %.lr.ph ]
  %35 = add nuw nsw i32 %.03841.us43, %29
  %36 = tail call fastcc i32 @dissect_zbee_zcl_gp_proxy_table_entry(ptr noundef %1, ptr noundef %0, ptr noundef %2, i32 noundef %35)
  %37 = add nuw nsw i32 %.03841.us43, 1
  %38 = icmp samesign ult i32 %37, %28
  %.not.us45 = icmp ne i32 %36, 0
  %39 = select i1 %38, i1 %.not.us45, i1 false
  br i1 %39, label %.lr.ph.split.us42, label %.loopexit, !llvm.loop !35

.loopexit:                                        ; preds = %.lr.ph.split.us42, %.lr.ph.split.us, %.lr.ph, %6, %4
  ret void
}